target datalayout = "e-m:e-p270:32:32-p271:32:32-p272:64:64-i64:64-i128:128-f80:128-n8:16:32:64-S128"
target triple = "x86_64-pc-linux-gnu"

%struct.JsonbInState = type { ptr, ptr, i8, ptr }

; Function Attrs: inlinehint nounwind uwtable
define internal i64 @PointerGetDatum(ptr noundef %0) #2 {
  %2 = alloca ptr, align 8
  store ptr %0, ptr %2, align 8
  %3 = load ptr, ptr %2, align 8
  %4 = ptrtoint ptr %3 to i64
  ret i64 %4
}

; Function Attrs: inlinehint nounwind uwtable
define internal i64 @JsonbPGetDatum(ptr noundef %0) #2 {
  %2 = alloca ptr, align 8
  store ptr %0, ptr %2, align 8
  %3 = load ptr, ptr %2, align 8
  %4 = call i64 @PointerGetDatum(ptr noundef %3)
  ret i64 %4
}

; Function Attrs: nounwind uwtable
define dso_local i64 @datum_to_jsonb(i64 noundef %0, i32 noundef %1, i32 noundef %2) #0 {
  %4 = alloca i64, align 8
  %5 = alloca i32, align 4
  %6 = alloca i32, align 4
  %7 = alloca %struct.JsonbInState, align 8
  store i64 %0, ptr %4, align 8
  store i32 %1, ptr %5, align 4
  store i32 %2, ptr %6, align 4
  call void @llvm.lifetime.start.p0(i64 32, ptr %7) #8
  call void @llvm.memset.p0.i64(ptr align 8 %7, i8 0, i64 32, i1 false)
  %8 = load i64, ptr %4, align 8
  %9 = load i32, ptr %5, align 4
  %10 = load i32, ptr %6, align 4
  call void @datum_to_jsonb_internal(i64 noundef %8, i1 noundef zeroext false, ptr noundef %7, i32 noundef %9, i32 noundef %10, i1 noundef zeroext false)
  %11 = getelementptr inbounds nuw %struct.JsonbInState, ptr %7, i32 0, i32 1
  %12 = load ptr, ptr %11, align 8
  %13 = call ptr @JsonbValueToJsonb(ptr noundef %12)
  %14 = call i64 @JsonbPGetDatum(ptr noundef %13)
  call void @llvm.lifetime.end.p0(i64 32, ptr %7) #8
  ret i64 %14
}