; Function Attrs: nounwind uwtable
define dso_local i64 @datum_to_jsonb(i64 noundef %0, i32 noundef %1, i32 noundef %2) local_unnamed_addr #0 {
  %4 = alloca %struct.JsonbInState, align 8
  call void @llvm.lifetime.start.p0(i64 32, ptr nonnull %4) #11
  call void @llvm.memset.p0.i64(ptr noundef nonnull align 8 dereferenceable(32) %4, i8 0, i64 32, i1 false)
  call fastcc void @datum_to_jsonb_internal(i64 noundef %0, i1 noundef zeroext false, ptr noundef %4, i32 noundef %1, i32 noundef %2, i1 noundef zeroext false)
  %5 = getelementptr inbounds nuw i8, ptr %4, i64 8
  %6 = load ptr, ptr %5, align 8
  %7 = call ptr @JsonbValueToJsonb(ptr noundef %6) #11
  %8 = ptrtoint ptr %7 to i64
  call void @llvm.lifetime.end.p0(i64 32, ptr nonnull %4) #11
  ret i64 %8
}